; Function Attrs: nounwind uwtable
define ptr @l_Array_foldlMUnsafe_fold___at_Lean_Linter_UnusedVariables_unusedVariables___elambda__1___spec__28(ptr noundef %0, ptr noundef readonly captures(none) %1, ptr noundef readonly captures(none) %2, i64 noundef %3, i64 noundef %4, ptr noundef %5) local_unnamed_addr #1 {
  %.not33 = icmp eq i64 %3, %4
  br i1 %.not33, label %._crit_edge, label %.lr.ph

.lr.ph:                                           ; preds = %6
  %7 = getelementptr inbounds nuw i8, ptr %2, i64 24
  %8 = ptrtoint ptr %0 to i64
  %9 = and i64 %8, 1
  %.not32 = icmp eq i64 %9, 0
  br i1 %.not32, label %.lr.ph.split.us, label %.lr.ph.split

.lr.ph.split.us:                                  ; preds = %.lr.ph, %lean_dec.exit.us
  %.01835.us = phi i64 [ %26, %lean_dec.exit.us ], [ %3, %.lr.ph ]
  %.02034.us = phi ptr [ %25, %lean_dec.exit.us ], [ %5, %.lr.ph ]
  %10 = getelementptr inbounds nuw [0 x ptr], ptr %7, i64 0, i64 %.01835.us
  %11 = load ptr, ptr %10, align 8, !tbaa !4
  %12 = ptrtoint ptr %11 to i64
  %13 = and i64 %12, 1
  %.not.i22.us = icmp eq i64 %13, 0
  br i1 %.not.i22.us, label %14, label %lean_array_uget.exit.us

14:                                               ; preds = %.lr.ph.split.us
  %.val.i.i.us = load i32, ptr %11, align 4, !tbaa !8
  %15 = icmp sgt i32 %.val.i.i.us, 0
  br i1 %15, label %18, label %16, !prof !11

16:                                               ; preds = %14
  %.not.i.i.us = icmp eq i32 %.val.i.i.us, 0
  br i1 %.not.i.i.us, label %lean_array_uget.exit.us, label %17

17:                                               ; preds = %16
  tail call void @lean_inc_ref_cold(ptr noundef nonnull %11) #7
  br label %lean_array_uget.exit.us

18:                                               ; preds = %14
  %19 = add nuw i32 %.val.i.i.us, 1
  store i32 %19, ptr %11, align 4, !tbaa !8
  br label %lean_array_uget.exit.us

lean_array_uget.exit.us:                          ; preds = %18, %17, %16, %.lr.ph.split.us
  %.val.i.us = load i32, ptr %0, align 4, !tbaa !8
  %20 = icmp sgt i32 %.val.i.us, 0
  br i1 %20, label %23, label %21, !prof !11

21:                                               ; preds = %lean_array_uget.exit.us
  %.not.i23.us = icmp eq i32 %.val.i.us, 0
  br i1 %.not.i23.us, label %lean_dec.exit.us, label %22

22:                                               ; preds = %21
  tail call void @lean_inc_ref_cold(ptr noundef nonnull %0) #7
  br label %lean_dec.exit.us

23:                                               ; preds = %lean_array_uget.exit.us
  %24 = add nuw i32 %.val.i.us, 1
  store i32 %24, ptr %0, align 4, !tbaa !8
  br label %lean_dec.exit.us

lean_dec.exit.us:                                 ; preds = %23, %22, %21
  %25 = tail call ptr @l_Std_DHashMap_Internal_AssocList_foldlM___at_Lean_Linter_UnusedVariables_unusedVariables___elambda__1___spec__3(ptr noundef nonnull %0, ptr noundef %1, ptr noundef %.02034.us, ptr noundef %11)
  %26 = add i64 %.01835.us, 1
  %.not.us = icmp eq i64 %26, %4
  br i1 %.not.us, label %._crit_edge.thread, label %.lr.ph.split.us

.lr.ph.split:                                     ; preds = %.lr.ph, %lean_array_uget.exit
  %.01835 = phi i64 [ %38, %lean_array_uget.exit ], [ %3, %.lr.ph ]
  %.02034 = phi ptr [ %37, %lean_array_uget.exit ], [ %5, %.lr.ph ]
  %27 = getelementptr inbounds nuw [0 x ptr], ptr %7, i64 0, i64 %.01835
  %28 = load ptr, ptr %27, align 8, !tbaa !4
  %29 = ptrtoint ptr %28 to i64
  %30 = and i64 %29, 1
  %.not.i22 = icmp eq i64 %30, 0
  br i1 %.not.i22, label %31, label %lean_array_uget.exit

31:                                               ; preds = %.lr.ph.split
  %.val.i.i = load i32, ptr %28, align 4, !tbaa !8
  %32 = icmp sgt i32 %.val.i.i, 0
  br i1 %32, label %33, label %35, !prof !11

33:                                               ; preds = %31
  %34 = add nuw i32 %.val.i.i, 1
  store i32 %34, ptr %28, align 4, !tbaa !8
  br label %lean_array_uget.exit

35:                                               ; preds = %31
  %.not.i.i = icmp eq i32 %.val.i.i, 0
  br i1 %.not.i.i, label %lean_array_uget.exit, label %36

36:                                               ; preds = %35
  tail call void @lean_inc_ref_cold(ptr noundef nonnull %28) #7
  br label %lean_array_uget.exit

lean_array_uget.exit:                             ; preds = %.lr.ph.split, %33, %35, %36
  %37 = tail call ptr @l_Std_DHashMap_Internal_AssocList_foldlM___at_Lean_Linter_UnusedVariables_unusedVariables___elambda__1___spec__3(ptr noundef %0, ptr noundef %1, ptr noundef %.02034, ptr noundef %28)
  %38 = add i64 %.01835, 1
  %.not = icmp eq i64 %38, %4
  br i1 %.not, label %._crit_edge.thread44, label %.lr.ph.split

._crit_edge:                                      ; preds = %6
  %.pre = ptrtoint ptr %0 to i64
  %.pre38 = and i64 %.pre, 1
  %39 = icmp eq i64 %.pre38, 0
  br i1 %39, label %._crit_edge.thread, label %._crit_edge.thread44

._crit_edge.thread:                               ; preds = %lean_dec.exit.us, %._crit_edge
  %.020.lcssa43 = phi ptr [ %5, %._crit_edge ], [ %25, %lean_dec.exit.us ]
  %40 = load i32, ptr %0, align 4, !tbaa !8
  %41 = icmp sgt i32 %40, 1
  br i1 %41, label %42, label %44, !prof !11

42:                                               ; preds = %._crit_edge.thread
  %43 = add nsw i32 %40, -1
  store i32 %43, ptr %0, align 4, !tbaa !8
  br label %._crit_edge.thread44

44:                                               ; preds = %._crit_edge.thread
  %.not.i = icmp eq i32 %40, 0
  br i1 %.not.i, label %._crit_edge.thread44, label %45

45:                                               ; preds = %44
  tail call void @lean_dec_ref_cold(ptr noundef nonnull %0) #7
  br label %._crit_edge.thread44

._crit_edge.thread44:                             ; preds = %lean_array_uget.exit, %45, %44, %42, %._crit_edge
  %.020.lcssa42 = phi ptr [ %.020.lcssa43, %45 ], [ %.020.lcssa43, %44 ], [ %.020.lcssa43, %42 ], [ %5, %._crit_edge ], [ %37, %lean_array_uget.exit ]
  ret ptr %.020.lcssa42
}